target datalayout = "e-m:e-p270:32:32-p271:32:32-p272:64:64-i64:64-i128:128-f80:128-n8:16:32:64-S128"
target triple = "x86_64-pc-linux-gnu"

%struct.H5FL_reg_head_t = type { i8, i32, i32, ptr, i64, ptr }
%struct.H5O_loc_t = type { ptr, i64, i8 }
%struct.H5A_t = type { %struct.H5O_shared_t, %struct.H5O_loc_t, i8, %struct.H5G_name_t, ptr }
%struct.H5O_shared_t = type { i32, ptr, i32, %union.anon }
%union.anon = type { %struct.H5O_mesg_loc_t }
%struct.H5O_mesg_loc_t = type { i32, i64 }
%struct.H5G_name_t = type { ptr, ptr, i32 }
%struct.H5A_shared_t = type { i8, ptr, i32, ptr, i64, ptr, i64, ptr, i64, i32, i32 }

@H5_H5A_t_reg_free_list = global %struct.H5FL_reg_head_t { i8 0, i32 0, i32 0, ptr @.str, i64 104, ptr null }, align 8
@.str.3 = private unnamed_addr constant [100 x i8] c"generated/home/dtcxzyw/WorkSpace/Projects/compilers/llvm-opt-benchmark/bench/hdf5/hdf5/src/H5Aint.c\00", align 1
@H5E_ATTR_g = external global i64, align 8
@H5E_CANTCOPY_g = external global i64, align 8
@.str.19 = private unnamed_addr constant [20 x i8] c"unable to copy path\00", align 1
@H5E_CANTFREE_g = external global i64, align 8
@.str.27 = private unnamed_addr constant [22 x i8] c"can't close attribute\00", align 1
@H5E_NOSPACE_g = external global i64, align 8
@.str.36 = private unnamed_addr constant [25 x i8] c"memory allocation failed\00", align 1
@H5E_RESOURCE_g = external global i64, align 8
@__func__.H5A__copy = private unnamed_addr constant [10 x i8] c"H5A__copy\00", align 1

; Function Attrs: nounwind uwtable
define ptr @H5A__copy(ptr noundef %0, ptr noundef %1) #0 {
  %3 = alloca ptr, align 8
  %4 = alloca ptr, align 8
  %5 = alloca ptr, align 8
  %6 = alloca i8, align 1
  %7 = alloca ptr, align 8
  %8 = alloca i8, align 1
  store ptr %0, ptr %3, align 8
  store ptr %1, ptr %4, align 8
  store ptr null, ptr %5, align 8
  store i8 0, ptr %6, align 1
  store ptr null, ptr %7, align 8
  store i8 0, ptr %8, align 1
  %9 = load ptr, ptr %3, align 8
  %10 = icmp eq ptr %9, null
  br i1 %10, label %11, label %30

11:                                               ; preds = %2
  %12 = call noalias ptr @H5FL_reg_calloc(ptr noundef @H5_H5A_t_reg_free_list)
  store ptr %12, ptr %5, align 8
  %13 = icmp eq ptr null, %12
  br i1 %13, label %14, label %29

14:                                               ; preds = %11
  br label %15

15:                                               ; preds = %14
  br label %16

16:                                               ; preds = %15
  br label %17

17:                                               ; preds = %16
  %18 = load i64, ptr @H5E_RESOURCE_g, align 8
  %19 = load i64, ptr @H5E_NOSPACE_g, align 8
  %20 = call i32 (ptr, ptr, i32, i64, i64, ptr, ...) @H5E_printf_stack(ptr noundef @.str.3, ptr noundef @__func__.H5A__copy, i32 noundef 1144, i64 noundef %18, i64 noundef %19, ptr noundef @.str.36)
  br label %21

21:                                               ; preds = %17
  store i8 1, ptr %8, align 1
  %22 = load i8, ptr %8, align 1
  %23 = trunc i8 %22 to i1
  %24 = zext i1 %23 to i8
  store i8 %24, ptr %8, align 1
  br label %25

25:                                               ; preds = %21
  br label %26

26:                                               ; preds = %25
  store ptr null, ptr %7, align 8
  br label %73

27:                                               ; No predecessors!
  br label %28

28:                                               ; preds = %27
  br label %29

29:                                               ; preds = %28, %11
  store i8 1, ptr %6, align 1
  br label %32

30:                                               ; preds = %2
  %31 = load ptr, ptr %3, align 8
  store ptr %31, ptr %5, align 8
  br label %32

32:                                               ; preds = %30, %29
  %33 = load ptr, ptr %5, align 8
  %34 = getelementptr inbounds %struct.H5A_t, ptr %33, i32 0, i32 0
  %35 = load ptr, ptr %4, align 8
  %36 = getelementptr inbounds %struct.H5A_t, ptr %35, i32 0, i32 0
  call void @llvm.memcpy.p0.p0.i64(ptr align 8 %34, ptr align 8 %36, i64 40, i1 false)
  %37 = load ptr, ptr %5, align 8
  %38 = getelementptr inbounds %struct.H5A_t, ptr %37, i32 0, i32 3
  %39 = load ptr, ptr %4, align 8
  %40 = getelementptr inbounds %struct.H5A_t, ptr %39, i32 0, i32 3
  %41 = call i32 @H5G_name_copy(ptr noundef %38, ptr noundef %40, i32 noundef 1)
  %42 = icmp slt i32 %41, 0
  br i1 %42, label %43, label %58

43:                                               ; preds = %32
  br label %44

44:                                               ; preds = %43
  br label %45

45:                                               ; preds = %44
  br label %46

46:                                               ; preds = %45
  %47 = load i64, ptr @H5E_ATTR_g, align 8
  %48 = load i64, ptr @H5E_CANTCOPY_g, align 8
  %49 = call i32 (ptr, ptr, i32, i64, i64, ptr, ...) @H5E_printf_stack(ptr noundef @.str.3, ptr noundef @__func__.H5A__copy, i32 noundef 1155, i64 noundef %47, i64 noundef %48, ptr noundef @.str.19)
  br label %50

50:                                               ; preds = %46
  store i8 1, ptr %8, align 1
  %51 = load i8, ptr %8, align 1
  %52 = trunc i8 %51 to i1
  %53 = zext i1 %52 to i8
  store i8 %53, ptr %8, align 1
  br label %54

54:                                               ; preds = %50
  br label %55

55:                                               ; preds = %54
  store ptr null, ptr %7, align 8
  br label %73

56:                                               ; No predecessors!
  br label %57

57:                                               ; preds = %56
  br label %58

58:                                               ; preds = %57, %32
  %59 = load ptr, ptr %4, align 8
  %60 = getelementptr inbounds %struct.H5A_t, ptr %59, i32 0, i32 4
  %61 = load ptr, ptr %60, align 8
  %62 = load ptr, ptr %5, align 8
  %63 = getelementptr inbounds %struct.H5A_t, ptr %62, i32 0, i32 4
  store ptr %61, ptr %63, align 8
  %64 = load ptr, ptr %5, align 8
  %65 = getelementptr inbounds %struct.H5A_t, ptr %64, i32 0, i32 4
  %66 = load ptr, ptr %65, align 8
  %67 = getelementptr inbounds %struct.H5A_shared_t, ptr %66, i32 0, i32 10
  %68 = load i32, ptr %67, align 4
  %69 = add i32 %68, 1
  store i32 %69, ptr %67, align 4
  %70 = load ptr, ptr %5, align 8
  %71 = getelementptr inbounds %struct.H5A_t, ptr %70, i32 0, i32 2
  store i8 0, ptr %71, align 8
  %72 = load ptr, ptr %5, align 8
  store ptr %72, ptr %7, align 8
  br label %73

73:                                               ; preds = %58, %55, %26
  %74 = load ptr, ptr %7, align 8
  %75 = icmp eq ptr %74, null
  br i1 %75, label %76, label %100

76:                                               ; preds = %73
  %77 = load i8, ptr %6, align 1
  %78 = trunc i8 %77 to i1
  br i1 %78, label %79, label %99

79:                                               ; preds = %76
  %80 = load ptr, ptr %5, align 8
  %81 = icmp ne ptr %80, null
  br i1 %81, label %82, label %99

82:                                               ; preds = %79
  %83 = load ptr, ptr %5, align 8
  %84 = call i32 @H5A__close(ptr noundef %83)
  %85 = icmp slt i32 %84, 0
  br i1 %85, label %86, label %99

86:                                               ; preds = %82
  br label %87

87:                                               ; preds = %86
  br label %88

88:                                               ; preds = %87
  br label %89

89:                                               ; preds = %88
  %90 = load i64, ptr @H5E_ATTR_g, align 8
  %91 = load i64, ptr @H5E_CANTFREE_g, align 8
  %92 = call i32 (ptr, ptr, i32, i64, i64, ptr, ...) @H5E_printf_stack(ptr noundef @.str.3, ptr noundef @__func__.H5A__copy, i32 noundef 1172, i64 noundef %90, i64 noundef %91, ptr noundef @.str.27)
  br label %93

93:                                               ; preds = %89
  store i8 1, ptr %8, align 1
  %94 = load i8, ptr %8, align 1
  %95 = trunc i8 %94 to i1
  %96 = zext i1 %95 to i8
  store i8 %96, ptr %8, align 1
  br label %97

97:                                               ; preds = %93
  store ptr null, ptr %7, align 8
  br label %98

98:                                               ; preds = %97
  br label %99

99:                                               ; preds = %98, %82, %79, %76
  br label %100

100:                                              ; preds = %99, %73
  %101 = load ptr, ptr %7, align 8
  ret ptr %101
}