; Function Attrs: nounwind uwtable
define noundef ptr @H5A__copy(ptr noundef %0, ptr noundef %1) local_unnamed_addr #0 {
  %3 = icmp eq ptr %0, null
  br i1 %3, label %4, label %10

4:                                                ; preds = %2
  %5 = tail call noalias ptr @H5FL_reg_calloc(ptr noundef nonnull @H5_H5A_t_reg_free_list) #13
  %6 = icmp eq ptr %5, null
  br i1 %6, label %.thread31, label %10

.thread31:                                        ; preds = %4
  %7 = load i64, ptr @H5E_RESOURCE_g, align 8
  %8 = load i64, ptr @H5E_NOSPACE_g, align 8
  %9 = tail call i32 (ptr, ptr, i32, i64, i64, ptr, ...) @H5E_printf_stack(ptr noundef nonnull @.str.3, ptr noundef nonnull @__func__.H5A__copy, i32 noundef 1144, i64 noundef %7, i64 noundef %8, ptr noundef nonnull @.str.36) #13
  br label %34

10:                                               ; preds = %2, %4
  %.021 = phi ptr [ %5, %4 ], [ %0, %2 ]
  tail call void @llvm.memcpy.p0.p0.i64(ptr noundef nonnull align 8 dereferenceable(40) %.021, ptr noundef nonnull align 8 dereferenceable(40) %1, i64 40, i1 false)
  %11 = getelementptr inbounds i8, ptr %.021, i64 72
  %12 = getelementptr inbounds i8, ptr %1, i64 72
  %13 = tail call i32 @H5G_name_copy(ptr noundef nonnull %11, ptr noundef nonnull %12, i32 noundef 1) #13
  %14 = icmp slt i32 %13, 0
  br i1 %14, label %23, label %15

15:                                               ; preds = %10
  %16 = getelementptr inbounds i8, ptr %1, i64 96
  %17 = load ptr, ptr %16, align 8
  %18 = getelementptr inbounds i8, ptr %.021, i64 96
  store ptr %17, ptr %18, align 8
  %19 = getelementptr inbounds i8, ptr %17, i64 76
  %20 = load i32, ptr %19, align 4
  %21 = add i32 %20, 1
  store i32 %21, ptr %19, align 4
  %22 = getelementptr inbounds i8, ptr %.021, i64 64
  store i8 0, ptr %22, align 8
  br label %34

23:                                               ; preds = %10
  %24 = load i64, ptr @H5E_ATTR_g, align 8
  %25 = load i64, ptr @H5E_CANTCOPY_g, align 8
  %26 = tail call i32 (ptr, ptr, i32, i64, i64, ptr, ...) @H5E_printf_stack(ptr noundef nonnull @.str.3, ptr noundef nonnull @__func__.H5A__copy, i32 noundef 1155, i64 noundef %24, i64 noundef %25, ptr noundef nonnull @.str.19) #13
  br i1 %3, label %27, label %34

27:                                               ; preds = %23
  %28 = tail call i32 @H5A__close(ptr noundef nonnull %.021)
  %29 = icmp slt i32 %28, 0
  br i1 %29, label %30, label %34

30:                                               ; preds = %27
  %31 = load i64, ptr @H5E_ATTR_g, align 8
  %32 = load i64, ptr @H5E_CANTFREE_g, align 8
  %33 = tail call i32 (ptr, ptr, i32, i64, i64, ptr, ...) @H5E_printf_stack(ptr noundef nonnull @.str.3, ptr noundef nonnull @__func__.H5A__copy, i32 noundef 1172, i64 noundef %31, i64 noundef %32, ptr noundef nonnull @.str.27) #13
  br label %34

34:                                               ; preds = %.thread31, %15, %23, %27, %30
  %.1 = phi ptr [ null, %30 ], [ null, %27 ], [ null, %23 ], [ %.021, %15 ], [ null, %.thread31 ]
  ret ptr %.1
}